target datalayout = "e-m:e-p270:32:32-p271:32:32-p272:64:64-i64:64-i128:128-f80:128-n8:16:32:64-S128"
target triple = "x86_64-pc-linux-gnu"

%struct.expert_field = type { i32, i32 }
%struct._packet_info = type { ptr, ptr, i32, i32, %struct.nstime_t, %struct.nstime_t, %struct.nstime_t, i8, ptr, ptr, ptr, ptr, %struct._address, %struct._address, %struct._address, %struct._address, %struct._address, %struct._address, i32, ptr, i8, [3 x i8], %struct.anon, i32, i32, i32, i32, ptr, i8, ptr, ptr, i16, i16, i32, i32, i16, i32, i32, ptr, ptr, ptr, i8, i8, i16, i16, i16, i32, i16, i16, ptr, ptr, ptr, ptr, ptr, i32, i32 }
%struct.nstime_t = type { i64, i32 }
%struct._address = type { i32, i32, ptr, ptr }
%struct.anon = type { i8, [3 x i8] }

@hf_checksum = internal global i32 0, align 4
@hf_checksum_status = internal global i32 0, align 4
@hf_max_resp = internal global i32 0, align 4
@hf_maddr = internal global i32 0, align 4
@ei_checksum = internal global %struct.expert_field zeroinitializer, align 4
@.str.196 = private unnamed_addr constant [18 x i8] c"%.1f sec (0x%02x)\00", align 1
@.str.197 = private unnamed_addr constant [10 x i8] c", general\00", align 1
@.str.198 = private unnamed_addr constant [4 x i8] c" %s\00", align 1
@.str.199 = private unnamed_addr constant [24 x i8] c", specific for group %s\00", align 1
@.str.200 = private unnamed_addr constant [10 x i8] c" group %s\00", align 1

; Function Attrs: null_pointer_is_valid sspstrong uwtable
define internal i32 @dissect_igmp_v2(ptr noundef %0, ptr noundef %1, ptr noundef %2, ptr noundef %3) #0 {
  %5 = alloca ptr, align 8
  %6 = alloca ptr, align 8
  %7 = alloca ptr, align 8
  %8 = alloca ptr, align 8
  %9 = alloca ptr, align 8
  %10 = alloca i8, align 1
  %11 = alloca i32, align 4
  %12 = alloca i8, align 1
  store ptr %0, ptr %5, align 8
  store ptr %1, ptr %6, align 8
  store ptr %2, ptr %7, align 8
  store ptr %3, ptr %8, align 8
  call void @llvm.lifetime.start.p0(i64 8, ptr %9) #4
  call void @llvm.lifetime.start.p0(i64 1, ptr %10) #4
  call void @llvm.lifetime.start.p0(i64 4, ptr %11) #4
  call void @llvm.lifetime.start.p0(i64 1, ptr %12) #4
  %13 = load ptr, ptr %5, align 8
  %14 = load ptr, ptr %6, align 8
  %15 = load ptr, ptr %7, align 8
  %16 = call ptr @dissect_igmp_common(ptr noundef %13, ptr noundef %14, ptr noundef %15, ptr noundef %11, ptr noundef %12, i32 noundef 2)
  store ptr %16, ptr %9, align 8
  %17 = load ptr, ptr %5, align 8
  %18 = load i32, ptr %11, align 4
  %19 = call zeroext i8 @tvb_get_uint8(ptr noundef %17, i32 noundef %18)
  store i8 %19, ptr %10, align 1
  %20 = load ptr, ptr %9, align 8
  %21 = load i32, ptr @hf_max_resp, align 4
  %22 = load ptr, ptr %5, align 8
  %23 = load i32, ptr %11, align 4
  %24 = load i8, ptr %10, align 1
  %25 = zext i8 %24 to i32
  %26 = load i8, ptr %10, align 1
  %27 = zext i8 %26 to i32
  %28 = sitofp i32 %27 to double
  %29 = fmul double %28, 1.000000e-01
  %30 = load i8, ptr %10, align 1
  %31 = zext i8 %30 to i32
  %32 = call ptr (ptr, i32, ptr, i32, i32, i32, ptr, ...) @proto_tree_add_uint_format_value(ptr noundef %20, i32 noundef %21, ptr noundef %22, i32 noundef %23, i32 noundef 1, i32 noundef %25, ptr noundef @.str.196, double noundef %29, i32 noundef %31)
  %33 = load i32, ptr %11, align 4
  %34 = add i32 %33, 1
  store i32 %34, ptr %11, align 4
  %35 = load ptr, ptr %9, align 8
  %36 = load ptr, ptr %5, align 8
  %37 = load i32, ptr @hf_checksum, align 4
  %38 = load i32, ptr @hf_checksum_status, align 4
  %39 = load ptr, ptr %6, align 8
  call void @igmp_checksum(ptr noundef %35, ptr noundef %36, i32 noundef %37, i32 noundef %38, ptr noundef @ei_checksum, ptr noundef %39, i32 noundef 8)
  %40 = load i32, ptr %11, align 4
  %41 = add i32 %40, 2
  store i32 %41, ptr %11, align 4
  %42 = load ptr, ptr %9, align 8
  %43 = load i32, ptr @hf_maddr, align 4
  %44 = load ptr, ptr %5, align 8
  %45 = load i32, ptr %11, align 4
  %46 = call ptr @proto_tree_add_item(ptr noundef %42, i32 noundef %43, ptr noundef %44, i32 noundef %45, i32 noundef 4, i32 noundef 0)
  %47 = load ptr, ptr %5, align 8
  %48 = load i32, ptr %11, align 4
  %49 = call i32 @tvb_get_ipv4(ptr noundef %47, i32 noundef %48)
  %50 = icmp ne i32 %49, 0
  br i1 %50, label %55, label %51

51:                                               ; preds = %4
  %52 = load ptr, ptr %6, align 8
  %53 = getelementptr inbounds nuw %struct._packet_info, ptr %52, i32 0, i32 1
  %54 = load ptr, ptr %53, align 8
  call void @col_append_str(ptr noundef %54, i32 noundef 25, ptr noundef @.str.197)
  br label %89

55:                                               ; preds = %4
  %56 = load i8, ptr %12, align 1
  %57 = zext i8 %56 to i32
  switch i32 %57, label %78 [
    i32 23, label %58
    i32 17, label %68
  ]

58:                                               ; preds = %55
  %59 = load ptr, ptr %6, align 8
  %60 = getelementptr inbounds nuw %struct._packet_info, ptr %59, i32 0, i32 1
  %61 = load ptr, ptr %60, align 8
  %62 = load ptr, ptr %6, align 8
  %63 = getelementptr inbounds nuw %struct._packet_info, ptr %62, i32 0, i32 51
  %64 = load ptr, ptr %63, align 8
  %65 = load ptr, ptr %5, align 8
  %66 = load i32, ptr %11, align 4
  %67 = call ptr @tvb_address_to_str(ptr noundef %64, ptr noundef %65, i32 noundef 2, i32 noundef %66)
  call void (ptr, i32, ptr, ...) @col_append_fstr(ptr noundef %61, i32 noundef 25, ptr noundef @.str.198, ptr noundef %67)
  br label %88

68:                                               ; preds = %55
  %69 = load ptr, ptr %6, align 8
  %70 = getelementptr inbounds nuw %struct._packet_info, ptr %69, i32 0, i32 1
  %71 = load ptr, ptr %70, align 8
  %72 = load ptr, ptr %6, align 8
  %73 = getelementptr inbounds nuw %struct._packet_info, ptr %72, i32 0, i32 51
  %74 = load ptr, ptr %73, align 8
  %75 = load ptr, ptr %5, align 8
  %76 = load i32, ptr %11, align 4
  %77 = call ptr @tvb_address_to_str(ptr noundef %74, ptr noundef %75, i32 noundef 2, i32 noundef %76)
  call void (ptr, i32, ptr, ...) @col_append_fstr(ptr noundef %71, i32 noundef 25, ptr noundef @.str.199, ptr noundef %77)
  br label %88

78:                                               ; preds = %55
  %79 = load ptr, ptr %6, align 8
  %80 = getelementptr inbounds nuw %struct._packet_info, ptr %79, i32 0, i32 1
  %81 = load ptr, ptr %80, align 8
  %82 = load ptr, ptr %6, align 8
  %83 = getelementptr inbounds nuw %struct._packet_info, ptr %82, i32 0, i32 51
  %84 = load ptr, ptr %83, align 8
  %85 = load ptr, ptr %5, align 8
  %86 = load i32, ptr %11, align 4
  %87 = call ptr @tvb_address_to_str(ptr noundef %84, ptr noundef %85, i32 noundef 2, i32 noundef %86)
  call void (ptr, i32, ptr, ...) @col_append_fstr(ptr noundef %81, i32 noundef 25, ptr noundef @.str.200, ptr noundef %87)
  br label %88

88:                                               ; preds = %78, %68, %58
  br label %89

89:                                               ; preds = %88, %51
  %90 = load i32, ptr %11, align 4
  %91 = add i32 %90, 4
  store i32 %91, ptr %11, align 4
  %92 = load i32, ptr %11, align 4
  call void @llvm.lifetime.end.p0(i64 1, ptr %12) #4
  call void @llvm.lifetime.end.p0(i64 4, ptr %11) #4
  call void @llvm.lifetime.end.p0(i64 1, ptr %10) #4
  call void @llvm.lifetime.end.p0(i64 8, ptr %9) #4
  ret i32 %92
}