; Function Attrs: null_pointer_is_valid sspstrong uwtable
define internal noundef i32 @dissect_igmp_v2(ptr noundef %0, ptr noundef %1, ptr noundef %2, ptr readnone captures(none) %3) #0 {
  %5 = alloca i32, align 4
  %6 = alloca i8, align 1
  call void @llvm.lifetime.start.p0(i64 4, ptr nonnull %5) #4
  call void @llvm.lifetime.start.p0(i64 1, ptr nonnull %6) #4
  %7 = call fastcc ptr @dissect_igmp_common(ptr noundef %0, ptr noundef %1, ptr noundef %2, ptr noundef nonnull %5, ptr noundef nonnull %6, i32 noundef 2)
  %8 = load i32, ptr %5, align 4
  %9 = tail call zeroext i8 @tvb_get_uint8(ptr noundef %0, i32 noundef %8)
  %10 = load i32, ptr @hf_max_resp, align 4
  %11 = zext i8 %9 to i32
  %12 = uitofp i8 %9 to double
  %13 = fmul double %12, 1.000000e-01
  %14 = tail call ptr (ptr, i32, ptr, i32, i32, i32, ptr, ...) @proto_tree_add_uint_format_value(ptr noundef %7, i32 noundef %10, ptr noundef %0, i32 noundef %8, i32 noundef 1, i32 noundef %11, ptr noundef nonnull @.str.196, double noundef %13, i32 noundef %11)
  %15 = load i32, ptr @hf_checksum, align 4
  %16 = load i32, ptr @hf_checksum_status, align 4
  tail call void @igmp_checksum(ptr noundef %7, ptr noundef %0, i32 noundef %15, i32 noundef %16, ptr noundef nonnull @ei_checksum, ptr noundef %1, i32 noundef 8)
  %17 = add i32 %8, 3
  %18 = load i32, ptr @hf_maddr, align 4
  %19 = tail call ptr @proto_tree_add_item(ptr noundef %7, i32 noundef %18, ptr noundef %0, i32 noundef %17, i32 noundef 4, i32 noundef 0)
  %20 = tail call i32 @tvb_get_ipv4(ptr noundef %0, i32 noundef %17)
  %.not = icmp eq i32 %20, 0
  br i1 %.not, label %21, label %24

21:                                               ; preds = %4
  %22 = getelementptr inbounds nuw i8, ptr %1, i64 8
  %23 = load ptr, ptr %22, align 8
  tail call void @col_append_str(ptr noundef %23, i32 noundef 25, ptr noundef nonnull @.str.197)
  br label %34

24:                                               ; preds = %4
  %25 = load i8, ptr %6, align 1
  %26 = getelementptr inbounds nuw i8, ptr %1, i64 8
  %27 = load ptr, ptr %26, align 8
  %28 = getelementptr inbounds nuw i8, ptr %1, i64 408
  %29 = load ptr, ptr %28, align 8
  %30 = tail call ptr @tvb_address_to_str(ptr noundef %29, ptr noundef %0, i32 noundef 2, i32 noundef %17)
  switch i8 %25, label %33 [
    i8 23, label %31
    i8 17, label %32
  ]

31:                                               ; preds = %24
  tail call void (ptr, i32, ptr, ...) @col_append_fstr(ptr noundef %27, i32 noundef 25, ptr noundef nonnull @.str.198, ptr noundef %30)
  br label %34

32:                                               ; preds = %24
  tail call void (ptr, i32, ptr, ...) @col_append_fstr(ptr noundef %27, i32 noundef 25, ptr noundef nonnull @.str.199, ptr noundef %30)
  br label %34

33:                                               ; preds = %24
  tail call void (ptr, i32, ptr, ...) @col_append_fstr(ptr noundef %27, i32 noundef 25, ptr noundef nonnull @.str.200, ptr noundef %30)
  br label %34

34:                                               ; preds = %31, %32, %33, %21
  %35 = add i32 %8, 7
  call void @llvm.lifetime.end.p0(i64 1, ptr nonnull %6) #4
  call void @llvm.lifetime.end.p0(i64 4, ptr nonnull %5) #4
  ret i32 %35
}